target datalayout = "e-m:e-p270:32:32-p271:32:32-p272:64:64-i64:64-i128:128-f80:128-n8:16:32:64-S128"
target triple = "x86_64-pc-linux-gnu"

%"struct.faiss::IndexIVFPQ" = type { %"struct.faiss::IndexIVF.base", %"struct.faiss::ProductQuantizer", i8, ptr, i64, i32, i32, %"struct.faiss::AlignedTable" }
%"struct.faiss::IndexIVF.base" = type <{ %"struct.faiss::Index.base", [4 x i8], %"struct.faiss::IndexIVFInterface", ptr, i8, [7 x i8], i64, i32, i32, %"struct.faiss::DirectMap", i8 }>
%"struct.faiss::Index.base" = type <{ ptr, i32, [4 x i8], i64, i8, i8, [2 x i8], i32, float }>
%"struct.faiss::IndexIVFInterface" = type { ptr, %"struct.faiss::Level1Quantizer", i64, i64 }
%"struct.faiss::Level1Quantizer" = type { ptr, i64, i8, i8, [6 x i8], %"struct.faiss::ClusteringParameters", ptr }
%"struct.faiss::ClusteringParameters" = type <{ i32, i32, i8, i8, i8, i8, i8, [3 x i8], i32, i32, i32, [4 x i8], i64, i8, i8, [6 x i8] }>
%"struct.faiss::DirectMap" = type { i32, %"class.std::vector", %"class.std::unordered_map" }
%"class.std::vector" = type { %"struct.std::_Vector_base" }
%"struct.std::_Vector_base" = type { %"struct.std::_Vector_base<long, std::allocator<long>>::_Vector_impl" }
%"struct.std::_Vector_base<long, std::allocator<long>>::_Vector_impl" = type { %"struct.std::_Vector_base<long, std::allocator<long>>::_Vector_impl_data" }
%"struct.std::_Vector_base<long, std::allocator<long>>::_Vector_impl_data" = type { ptr, ptr, ptr }
%"class.std::unordered_map" = type { %"class.std::_Hashtable" }
%"class.std::_Hashtable" = type { ptr, i64, %"struct.std::__detail::_Hash_node_base", i64, %"struct.std::__detail::_Prime_rehash_policy", ptr }
%"struct.std::__detail::_Hash_node_base" = type { ptr }
%"struct.std::__detail::_Prime_rehash_policy" = type { float, i64 }
%"struct.faiss::ProductQuantizer" = type { %"struct.faiss::Quantizer", i64, i64, i64, i64, i8, i32, %"struct.faiss::ClusteringParameters", ptr, %"class.std::vector.5", %"class.std::vector.5", %"class.std::vector.5", %"class.std::vector.5" }
%"struct.faiss::Quantizer" = type { ptr, i64, i64 }
%"class.std::vector.5" = type { %"struct.std::_Vector_base.6" }
%"struct.std::_Vector_base.6" = type { %"struct.std::_Vector_base<float, std::allocator<float>>::_Vector_impl" }
%"struct.std::_Vector_base<float, std::allocator<float>>::_Vector_impl" = type { %"struct.std::_Vector_base<float, std::allocator<float>>::_Vector_impl_data" }
%"struct.std::_Vector_base<float, std::allocator<float>>::_Vector_impl_data" = type { ptr, ptr, ptr }
%"struct.faiss::AlignedTable" = type { %"struct.faiss::AlignedTableTightAlloc", i64 }
%"struct.faiss::AlignedTableTightAlloc" = type { ptr, i64 }
%"struct.faiss::IndexIVF" = type <{ %"struct.faiss::Index.base", [4 x i8], %"struct.faiss::IndexIVFInterface", ptr, i8, [7 x i8], i64, i32, i32, %"struct.faiss::DirectMap", i8, [7 x i8] }>
%"struct.faiss::Index" = type <{ ptr, i32, [4 x i8], i64, i8, i8, [2 x i8], i32, float, [4 x i8] }>
%"struct.faiss::InvertedLists" = type <{ ptr, i64, i64, i8, [7 x i8] }>

@_ZTVN5faiss16ProductQuantizerE = external unnamed_addr constant { [7 x ptr] }, align 8

; Function Attrs: mustprogress nounwind uwtable
define linkonce_odr void @_ZNSt15__new_allocatorIfE10deallocateEPfm(ptr noundef nonnull align 1 dereferenceable(1) %0, ptr noundef %1, i64 noundef %2) #3 comdat align 2 {
  %4 = alloca ptr, align 8
  %5 = alloca ptr, align 8
  %6 = alloca i64, align 8
  store ptr %0, ptr %4, align 8, !tbaa !112
  store ptr %1, ptr %5, align 8, !tbaa !15
  store i64 %2, ptr %6, align 8, !tbaa !11
  %7 = load ptr, ptr %5, align 8, !tbaa !15
  %8 = load i64, ptr %6, align 8, !tbaa !11
  %9 = mul i64 %8, 4
  call void @_ZdlPvm(ptr noundef %7, i64 noundef %9) #23
  ret void
}

; Function Attrs: mustprogress uwtable
define linkonce_odr void @_ZNSt16allocator_traitsISaIfEE10deallocateERS0_Pfm(ptr noundef nonnull align 1 dereferenceable(1) %0, ptr noundef %1, i64 noundef %2) #2 comdat align 2 {
  %4 = alloca ptr, align 8
  %5 = alloca ptr, align 8
  %6 = alloca i64, align 8
  store ptr %0, ptr %4, align 8, !tbaa !107
  store ptr %1, ptr %5, align 8, !tbaa !15
  store i64 %2, ptr %6, align 8, !tbaa !11
  %7 = load ptr, ptr %4, align 8, !tbaa !107
  %8 = load ptr, ptr %5, align 8, !tbaa !15
  %9 = load i64, ptr %6, align 8, !tbaa !11
  call void @_ZNSt15__new_allocatorIfE10deallocateEPfm(ptr noundef nonnull align 1 dereferenceable(1) %7, ptr noundef %8, i64 noundef %9)
  ret void
}

; Function Attrs: mustprogress nounwind uwtable
define linkonce_odr void @_ZNSt12_Destroy_auxILb1EE9__destroyIPfEEvT_S3_(ptr noundef %0, ptr noundef %1) #3 comdat align 2 {
  %3 = alloca ptr, align 8
  %4 = alloca ptr, align 8
  store ptr %0, ptr %3, align 8, !tbaa !15
  store ptr %1, ptr %4, align 8, !tbaa !15
  ret void
}

; Function Attrs: mustprogress nounwind uwtable
define linkonce_odr void @_ZNSt15__new_allocatorIfED2Ev(ptr noundef nonnull align 1 dereferenceable(1) %0) unnamed_addr #3 comdat align 2 {
  %2 = alloca ptr, align 8
  store ptr %0, ptr %2, align 8, !tbaa !112
  ret void
}

; Function Attrs: mustprogress uwtable
define linkonce_odr void @_ZNSt12_Vector_baseIfSaIfEE13_M_deallocateEPfm(ptr noundef nonnull align 8 dereferenceable(24) %0, ptr noundef %1, i64 noundef %2) #2 comdat align 2 {
  %4 = alloca ptr, align 8
  %5 = alloca ptr, align 8
  %6 = alloca i64, align 8
  store ptr %0, ptr %4, align 8, !tbaa !109
  store ptr %1, ptr %5, align 8, !tbaa !15
  store i64 %2, ptr %6, align 8, !tbaa !11
  %7 = load ptr, ptr %4, align 8
  %8 = load ptr, ptr %5, align 8, !tbaa !15
  %9 = icmp ne ptr %8, null
  br i1 %9, label %10, label %14

10:                                               ; preds = %3
  %11 = getelementptr inbounds nuw %"struct.std::_Vector_base.6", ptr %7, i32 0, i32 0
  %12 = load ptr, ptr %5, align 8, !tbaa !15
  %13 = load i64, ptr %6, align 8, !tbaa !11
  call void @_ZNSt16allocator_traitsISaIfEE10deallocateERS0_Pfm(ptr noundef nonnull align 1 dereferenceable(1) %11, ptr noundef %12, i64 noundef %13)
  br label %14

14:                                               ; preds = %10, %3
  ret void
}

; Function Attrs: inlinehint mustprogress uwtable
define linkonce_odr void @_ZSt8_DestroyIPfEvT_S1_(ptr noundef %0, ptr noundef %1) #7 comdat {
  %3 = alloca ptr, align 8
  %4 = alloca ptr, align 8
  store ptr %0, ptr %3, align 8, !tbaa !15
  store ptr %1, ptr %4, align 8, !tbaa !15
  %5 = load ptr, ptr %3, align 8, !tbaa !15
  %6 = load ptr, ptr %4, align 8, !tbaa !15
  call void @_ZNSt12_Destroy_auxILb1EE9__destroyIPfEEvT_S3_(ptr noundef %5, ptr noundef %6)
  ret void
}

; Function Attrs: noinline noreturn nounwind uwtable
define linkonce_odr hidden void @__clang_call_terminate(ptr noundef %0) #8 comdat {
  %2 = call ptr @__cxa_begin_catch(ptr %0) #18
  call void @_ZSt9terminatev() #24
  unreachable
}

; Function Attrs: mustprogress nounwind uwtable
define linkonce_odr void @_ZNSt12_Vector_baseIfSaIfEED2Ev(ptr noundef nonnull align 8 dereferenceable(24) %0) unnamed_addr #3 comdat align 2 personality ptr @__gxx_personality_v0 {
  %2 = alloca ptr, align 8
  store ptr %0, ptr %2, align 8, !tbaa !109
  %3 = load ptr, ptr %2, align 8
  %4 = getelementptr inbounds nuw %"struct.std::_Vector_base.6", ptr %3, i32 0, i32 0
  %5 = getelementptr inbounds nuw %"struct.std::_Vector_base<float, std::allocator<float>>::_Vector_impl_data", ptr %4, i32 0, i32 0
  %6 = load ptr, ptr %5, align 8, !tbaa !103
  %7 = getelementptr inbounds nuw %"struct.std::_Vector_base.6", ptr %3, i32 0, i32 0
  %8 = getelementptr inbounds nuw %"struct.std::_Vector_base<float, std::allocator<float>>::_Vector_impl_data", ptr %7, i32 0, i32 2
  %9 = load ptr, ptr %8, align 8, !tbaa !111
  %10 = getelementptr inbounds nuw %"struct.std::_Vector_base.6", ptr %3, i32 0, i32 0
  %11 = getelementptr inbounds nuw %"struct.std::_Vector_base<float, std::allocator<float>>::_Vector_impl_data", ptr %10, i32 0, i32 0
  %12 = load ptr, ptr %11, align 8, !tbaa !103
  %13 = ptrtoint ptr %9 to i64
  %14 = ptrtoint ptr %12 to i64
  %15 = sub i64 %13, %14
  %16 = sdiv exact i64 %15, 4
  invoke void @_ZNSt12_Vector_baseIfSaIfEE13_M_deallocateEPfm(ptr noundef nonnull align 8 dereferenceable(24) %3, ptr noundef %6, i64 noundef %16)
          to label %17 unwind label %19

17:                                               ; preds = %1
  %18 = getelementptr inbounds nuw %"struct.std::_Vector_base.6", ptr %3, i32 0, i32 0
  call void @_ZNSt15__new_allocatorIfED2Ev(ptr noundef nonnull align 8 dereferenceable(24) %18) #18
  ret void

19:                                               ; preds = %1
  %20 = landingpad { ptr, i32 }
          catch ptr null
  %21 = extractvalue { ptr, i32 } %20, 0
  call void @__clang_call_terminate(ptr %21) #24
  unreachable
}

; Function Attrs: inlinehint mustprogress uwtable
define linkonce_odr void @_ZSt8_DestroyIPffEvT_S1_RSaIT0_E(ptr noundef %0, ptr noundef %1, ptr noundef nonnull align 1 dereferenceable(1) %2) #7 comdat {
  %4 = alloca ptr, align 8
  %5 = alloca ptr, align 8
  %6 = alloca ptr, align 8
  store ptr %0, ptr %4, align 8, !tbaa !15
  store ptr %1, ptr %5, align 8, !tbaa !15
  store ptr %2, ptr %6, align 8, !tbaa !107
  %7 = load ptr, ptr %4, align 8, !tbaa !15
  %8 = load ptr, ptr %5, align 8, !tbaa !15
  call void @_ZSt8_DestroyIPfEvT_S1_(ptr noundef %7, ptr noundef %8)
  ret void
}

; Function Attrs: mustprogress nounwind uwtable
define linkonce_odr noundef nonnull align 1 dereferenceable(1) ptr @_ZNSt12_Vector_baseIfSaIfEE19_M_get_Tp_allocatorEv(ptr noundef nonnull align 8 dereferenceable(24) %0) #3 comdat align 2 {
  %2 = alloca ptr, align 8
  store ptr %0, ptr %2, align 8, !tbaa !109
  %3 = load ptr, ptr %2, align 8
  %4 = getelementptr inbounds nuw %"struct.std::_Vector_base.6", ptr %3, i32 0, i32 0
  ret ptr %4
}

; Function Attrs: mustprogress nounwind uwtable
define linkonce_odr void @_ZN5faiss9QuantizerD2Ev(ptr noundef nonnull align 8 dereferenceable(24) %0) unnamed_addr #3 comdat align 2 {
  %2 = alloca ptr, align 8
  store ptr %0, ptr %2, align 8, !tbaa !105
  ret void
}

; Function Attrs: mustprogress nounwind uwtable
define linkonce_odr void @_ZNSt6vectorIfSaIfEED2Ev(ptr noundef nonnull align 8 dereferenceable(24) %0) unnamed_addr #3 comdat align 2 personality ptr @__gxx_personality_v0 {
  %2 = alloca ptr, align 8
  store ptr %0, ptr %2, align 8, !tbaa !101
  %3 = load ptr, ptr %2, align 8
  %4 = getelementptr inbounds nuw %"struct.std::_Vector_base.6", ptr %3, i32 0, i32 0
  %5 = getelementptr inbounds nuw %"struct.std::_Vector_base<float, std::allocator<float>>::_Vector_impl_data", ptr %4, i32 0, i32 0
  %6 = load ptr, ptr %5, align 8, !tbaa !103
  %7 = getelementptr inbounds nuw %"struct.std::_Vector_base.6", ptr %3, i32 0, i32 0
  %8 = getelementptr inbounds nuw %"struct.std::_Vector_base<float, std::allocator<float>>::_Vector_impl_data", ptr %7, i32 0, i32 1
  %9 = load ptr, ptr %8, align 8, !tbaa !104
  %10 = call noundef nonnull align 1 dereferenceable(1) ptr @_ZNSt12_Vector_baseIfSaIfEE19_M_get_Tp_allocatorEv(ptr noundef nonnull align 8 dereferenceable(24) %3) #18
  invoke void @_ZSt8_DestroyIPffEvT_S1_RSaIT0_E(ptr noundef %6, ptr noundef %9, ptr noundef nonnull align 1 dereferenceable(1) %10)
          to label %11 unwind label %12

11:                                               ; preds = %1
  call void @_ZNSt12_Vector_baseIfSaIfEED2Ev(ptr noundef nonnull align 8 dereferenceable(24) %3) #18
  ret void

12:                                               ; preds = %1
  %13 = landingpad { ptr, i32 }
          catch ptr null
  %14 = extractvalue { ptr, i32 } %13, 0
  call void @__clang_call_terminate(ptr %14) #24
  unreachable
}

; Function Attrs: mustprogress nounwind uwtable
define linkonce_odr void @_ZN5faiss22AlignedTableTightAllocIfLi32EEC2Ev(ptr noundef nonnull align 8 dereferenceable(16) %0) unnamed_addr #3 comdat align 2 {
  %2 = alloca ptr, align 8
  store ptr %0, ptr %2, align 8, !tbaa !97
  %3 = load ptr, ptr %2, align 8
  %4 = getelementptr inbounds nuw %"struct.faiss::AlignedTableTightAlloc", ptr %3, i32 0, i32 0
  store ptr null, ptr %4, align 8, !tbaa !99
  %5 = getelementptr inbounds nuw %"struct.faiss::AlignedTableTightAlloc", ptr %3, i32 0, i32 1
  store i64 0, ptr %5, align 8, !tbaa !100
  ret void
}

; Function Attrs: inlinehint mustprogress nounwind uwtable
define linkonce_odr void @_ZN5faiss16ProductQuantizerD2Ev(ptr noundef nonnull align 8 dereferenceable(216) %0) unnamed_addr #0 comdat align 2 {
  %2 = alloca ptr, align 8
  store ptr %0, ptr %2, align 8, !tbaa !95
  %3 = load ptr, ptr %2, align 8
  store ptr getelementptr inbounds inrange(-16, 40) ({ [7 x ptr] }, ptr @_ZTVN5faiss16ProductQuantizerE, i32 0, i32 0, i32 2), ptr %3, align 8, !tbaa !9
  %4 = getelementptr inbounds nuw %"struct.faiss::ProductQuantizer", ptr %3, i32 0, i32 12
  call void @_ZNSt6vectorIfSaIfEED2Ev(ptr noundef nonnull align 8 dereferenceable(24) %4) #18
  %5 = getelementptr inbounds nuw %"struct.faiss::ProductQuantizer", ptr %3, i32 0, i32 11
  call void @_ZNSt6vectorIfSaIfEED2Ev(ptr noundef nonnull align 8 dereferenceable(24) %5) #18
  %6 = getelementptr inbounds nuw %"struct.faiss::ProductQuantizer", ptr %3, i32 0, i32 10
  call void @_ZNSt6vectorIfSaIfEED2Ev(ptr noundef nonnull align 8 dereferenceable(24) %6) #18
  %7 = getelementptr inbounds nuw %"struct.faiss::ProductQuantizer", ptr %3, i32 0, i32 9
  call void @_ZNSt6vectorIfSaIfEED2Ev(ptr noundef nonnull align 8 dereferenceable(24) %7) #18
  call void @_ZN5faiss9QuantizerD2Ev(ptr noundef nonnull align 8 dereferenceable(24) %3) #18
  ret void
}

; Function Attrs: mustprogress uwtable
define linkonce_odr void @_ZN5faiss12AlignedTableIfLi32EEC2Ev(ptr noundef nonnull align 8 dereferenceable(24) %0) unnamed_addr #2 comdat align 2 {
  %2 = alloca ptr, align 8
  store ptr %0, ptr %2, align 8, !tbaa !92
  %3 = load ptr, ptr %2, align 8
  %4 = getelementptr inbounds nuw %"struct.faiss::AlignedTable", ptr %3, i32 0, i32 0
  call void @_ZN5faiss22AlignedTableTightAllocIfLi32EEC2Ev(ptr noundef nonnull align 8 dereferenceable(16) %4)
  %5 = getelementptr inbounds nuw %"struct.faiss::AlignedTable", ptr %3, i32 0, i32 1
  store i64 0, ptr %5, align 8, !tbaa !94
  ret void
}

; Function Attrs: mustprogress uwtable
define void @_ZN5faiss10IndexIVFPQC2EPNS_5IndexEmmmmNS_10MetricTypeE(ptr noundef nonnull align 8 dereferenceable(544) %0, ptr noundef %1, i64 noundef %2, i64 noundef %3, i64 noundef %4, i64 noundef %5, i32 noundef %6) unnamed_addr #2 align 2 personality ptr @__gxx_personality_v0 {
  %8 = alloca ptr, align 8
  %9 = alloca ptr, align 8
  %10 = alloca i64, align 8
  %11 = alloca i64, align 8
  %12 = alloca i64, align 8
  %13 = alloca i64, align 8
  %14 = alloca i32, align 4
  %15 = alloca ptr, align 8
  %16 = alloca i32, align 4
  store ptr %0, ptr %8, align 8, !tbaa !4
  store ptr %1, ptr %9, align 8, !tbaa !83
  store i64 %2, ptr %10, align 8, !tbaa !11
  store i64 %3, ptr %11, align 8, !tbaa !11
  store i64 %4, ptr %12, align 8, !tbaa !11
  store i64 %5, ptr %13, align 8, !tbaa !11
  store i32 %6, ptr %14, align 4, !tbaa !84
  %17 = load ptr, ptr %8, align 8
  %18 = load ptr, ptr %9, align 8, !tbaa !83
  %19 = load i64, ptr %10, align 8, !tbaa !11
  %20 = load i64, ptr %11, align 8, !tbaa !11
  %21 = load i32, ptr %14, align 4, !tbaa !84
  call void @_ZN5faiss8IndexIVFC2EPNS_5IndexEmmmNS_10MetricTypeE(ptr noundef nonnull align 8 dereferenceable(265) %17, ptr noundef %18, i64 noundef %19, i64 noundef %20, i64 noundef 0, i32 noundef %21)
  store ptr getelementptr inbounds inrange(-16, 272) ({ [36 x ptr], [6 x ptr] }, ptr @_ZTVN5faiss10IndexIVFPQE, i32 0, i32 0, i32 2), ptr %17, align 8, !tbaa !9
  %22 = getelementptr inbounds i8, ptr %17, i64 40
  store ptr getelementptr inbounds inrange(-16, 32) ({ [36 x ptr], [6 x ptr] }, ptr @_ZTVN5faiss10IndexIVFPQE, i32 0, i32 1, i32 2), ptr %22, align 8, !tbaa !9
  %23 = getelementptr inbounds nuw %"struct.faiss::IndexIVFPQ", ptr %17, i32 0, i32 1
  %24 = load i64, ptr %10, align 8, !tbaa !11
  %25 = load i64, ptr %12, align 8, !tbaa !11
  %26 = load i64, ptr %13, align 8, !tbaa !11
  invoke void @_ZN5faiss16ProductQuantizerC1Emmm(ptr noundef nonnull align 8 dereferenceable(216) %23, i64 noundef %24, i64 noundef %25, i64 noundef %26)
          to label %27 unwind label %46

27:                                               ; preds = %7
  %28 = getelementptr inbounds nuw %"struct.faiss::IndexIVFPQ", ptr %17, i32 0, i32 7
  invoke void @_ZN5faiss12AlignedTableIfLi32EEC2Ev(ptr noundef nonnull align 8 dereferenceable(24) %28)
          to label %29 unwind label %50

29:                                               ; preds = %27
  %30 = getelementptr inbounds nuw %"struct.faiss::IndexIVFPQ", ptr %17, i32 0, i32 1
  %31 = getelementptr inbounds nuw %"struct.faiss::Quantizer", ptr %30, i32 0, i32 2
  %32 = load i64, ptr %31, align 8, !tbaa !85
  %33 = getelementptr inbounds nuw %"struct.faiss::IndexIVF", ptr %17, i32 0, i32 6
  store i64 %32, ptr %33, align 8, !tbaa !48
  %34 = getelementptr inbounds nuw %"struct.faiss::IndexIVF", ptr %17, i32 0, i32 6
  %35 = load i64, ptr %34, align 8, !tbaa !48
  %36 = getelementptr inbounds nuw %"struct.faiss::IndexIVF", ptr %17, i32 0, i32 3
  %37 = load ptr, ptr %36, align 8, !tbaa !70
  %38 = getelementptr inbounds nuw %"struct.faiss::InvertedLists", ptr %37, i32 0, i32 2
  store i64 %35, ptr %38, align 8, !tbaa !86
  %39 = getelementptr inbounds nuw %"struct.faiss::Index", ptr %17, i32 0, i32 5
  store i8 0, ptr %39, align 1, !tbaa !88
  %40 = getelementptr inbounds nuw %"struct.faiss::IndexIVF", ptr %17, i32 0, i32 10
  store i8 1, ptr %40, align 8, !tbaa !22
  %41 = getelementptr inbounds nuw %"struct.faiss::IndexIVFPQ", ptr %17, i32 0, i32 6
  store i32 0, ptr %41, align 4, !tbaa !89
  %42 = getelementptr inbounds nuw %"struct.faiss::IndexIVFPQ", ptr %17, i32 0, i32 4
  store i64 0, ptr %42, align 8, !tbaa !90
  %43 = getelementptr inbounds nuw %"struct.faiss::IndexIVFPQ", ptr %17, i32 0, i32 3
  store ptr null, ptr %43, align 8, !tbaa !64
  %44 = getelementptr inbounds nuw %"struct.faiss::IndexIVFPQ", ptr %17, i32 0, i32 2
  store i8 0, ptr %44, align 8, !tbaa !51
  %45 = getelementptr inbounds nuw %"struct.faiss::IndexIVFPQ", ptr %17, i32 0, i32 5
  store i32 0, ptr %45, align 8, !tbaa !91
  ret void

46:                                               ; preds = %7
  %47 = landingpad { ptr, i32 }
          cleanup
  %48 = extractvalue { ptr, i32 } %47, 0
  store ptr %48, ptr %15, align 8
  %49 = extractvalue { ptr, i32 } %47, 1
  store i32 %49, ptr %16, align 4
  br label %54

50:                                               ; preds = %27
  %51 = landingpad { ptr, i32 }
          cleanup
  %52 = extractvalue { ptr, i32 } %51, 0
  store ptr %52, ptr %15, align 8
  %53 = extractvalue { ptr, i32 } %51, 1
  store i32 %53, ptr %16, align 4
  call void @_ZN5faiss16ProductQuantizerD2Ev(ptr noundef nonnull align 8 dereferenceable(216) %23) #18
  br label %54

54:                                               ; preds = %50, %46
  call void @_ZN5faiss8IndexIVFD2Ev(ptr noundef nonnull align 8 dereferenceable(265) %17) #18
  br label %55

55:                                               ; preds = %54
  %56 = load ptr, ptr %15, align 8
  %57 = load i32, ptr %16, align 4
  %58 = insertvalue { ptr, i32 } poison, ptr %56, 0
  %59 = insertvalue { ptr, i32 } %58, i32 %57, 1
  resume { ptr, i32 } %59
}