; Function Attrs: mustprogress uwtable
define void @_ZN5faiss10IndexIVFPQC2EPNS_5IndexEmmmmNS_10MetricTypeE(ptr noundef nonnull align 8 dereferenceable(544) %0, ptr noundef %1, i64 noundef %2, i64 noundef %3, i64 noundef %4, i64 noundef %5, i32 noundef %6) unnamed_addr #2 align 2 personality ptr @__gxx_personality_v0 {
  tail call void @_ZN5faiss8IndexIVFC2EPNS_5IndexEmmmNS_10MetricTypeE(ptr noundef nonnull align 8 dereferenceable(265) %0, ptr noundef %1, i64 noundef %2, i64 noundef %3, i64 noundef 0, i32 noundef %6)
  store ptr getelementptr inbounds nuw inrange(-16, 272) (i8, ptr @_ZTVN5faiss10IndexIVFPQE, i64 16), ptr %0, align 8, !tbaa !4
  %8 = getelementptr inbounds nuw i8, ptr %0, i64 40
  store ptr getelementptr inbounds nuw inrange(-16, 32) (i8, ptr @_ZTVN5faiss10IndexIVFPQE, i64 304), ptr %8, align 8, !tbaa !4
  %9 = getelementptr inbounds nuw i8, ptr %0, i64 272
  invoke void @_ZN5faiss16ProductQuantizerC1Emmm(ptr noundef nonnull align 8 dereferenceable(216) %9, i64 noundef %2, i64 noundef %4, i64 noundef %5)
          to label %10 unwind label %22

10:                                               ; preds = %7
  %11 = getelementptr inbounds nuw i8, ptr %0, i64 520
  tail call void @llvm.memset.p0.i64(ptr noundef nonnull align 8 dereferenceable(24) %11, i8 0, i64 24, i1 false)
  %12 = getelementptr inbounds nuw i8, ptr %0, i64 288
  %13 = load i64, ptr %12, align 8, !tbaa !140
  %14 = getelementptr inbounds nuw i8, ptr %0, i64 160
  store i64 %13, ptr %14, align 8, !tbaa !54
  %15 = getelementptr inbounds nuw i8, ptr %0, i64 144
  %16 = load ptr, ptr %15, align 8, !tbaa !137
  %17 = getelementptr inbounds nuw i8, ptr %16, i64 16
  store i64 %13, ptr %17, align 8, !tbaa !141
  %18 = getelementptr inbounds nuw i8, ptr %0, i64 25
  store i8 0, ptr %18, align 1, !tbaa !143
  %19 = getelementptr inbounds nuw i8, ptr %0, i64 264
  store i8 1, ptr %19, align 8, !tbaa !20
  %20 = getelementptr inbounds nuw i8, ptr %0, i64 496
  %21 = getelementptr inbounds nuw i8, ptr %0, i64 488
  store i8 0, ptr %21, align 8, !tbaa !56
  tail call void @llvm.memset.p0.i64(ptr noundef nonnull align 8 dereferenceable(24) %20, i8 0, i64 24, i1 false)
  ret void

22:                                               ; preds = %7
  %23 = landingpad { ptr, i32 }
          cleanup
  tail call void @_ZN5faiss8IndexIVFD2Ev(ptr noundef nonnull align 8 dereferenceable(265) %0) #17
  resume { ptr, i32 } %23
}